; Function Attrs: mustprogress nofree norecurse nosync nounwind willreturn memory(argmem: read) uwtable
define dso_local noundef ptr @_ZN31btDefaultCollisionConfiguration31getCollisionAlgorithmCreateFuncEii(ptr noundef nonnull readonly align 8 captures(none) dereferenceable(176) %0, i32 noundef %1, i32 noundef %2) unnamed_addr #6 align 2 {
  %4 = icmp eq i32 %1, 8
  %5 = icmp eq i32 %2, 8
  %or.cond = and i1 %4, %5
  br i1 %or.cond, label %31, label %6

6:                                                ; preds = %3
  %7 = icmp eq i32 %2, 1
  %or.cond3 = and i1 %4, %7
  br i1 %or.cond3, label %31, label %8

8:                                                ; preds = %6
  %9 = icmp eq i32 %1, 1
  %or.cond5 = and i1 %9, %5
  br i1 %or.cond5, label %31, label %10

10:                                               ; preds = %8
  %11 = or i32 %2, %1
  %or.cond7 = icmp eq i32 %11, 0
  br i1 %or.cond7, label %31, label %12

12:                                               ; preds = %10
  %13 = icmp slt i32 %1, 20
  %14 = icmp eq i32 %2, 28
  %or.cond9 = and i1 %13, %14
  br i1 %or.cond9, label %31, label %15

15:                                               ; preds = %12
  %16 = icmp slt i32 %2, 20
  %17 = icmp eq i32 %1, 28
  %or.cond11 = and i1 %17, %16
  br i1 %or.cond11, label %31, label %18

18:                                               ; preds = %15
  br i1 %13, label %19, label %23

19:                                               ; preds = %18
  br i1 %16, label %31, label %20

20:                                               ; preds = %19
  %21 = add nsw i32 %2, -21
  %22 = icmp ult i32 %21, 9
  br i1 %22, label %31, label %.thread37

23:                                               ; preds = %18
  %24 = add nsw i32 %1, -21
  %25 = icmp ult i32 %24, 9
  %or.cond39 = select i1 %16, i1 %25, i1 false
  br i1 %or.cond39, label %31, label %26

26:                                               ; preds = %23
  %27 = icmp eq i32 %1, 31
  br i1 %27, label %28, label %.thread37

28:                                               ; preds = %26
  %29 = icmp eq i32 %2, 31
  %. = select i1 %29, i64 88, i64 80
  br label %31

.thread37:                                        ; preds = %26, %20
  %30 = icmp eq i32 %2, 31
  %.40 = select i1 %30, i64 96, i64 104
  br label %31

31:                                               ; preds = %.thread37, %28, %23, %20, %19, %15, %12, %10, %8, %6, %3
  %.sink = phi i64 [ 112, %3 ], [ 144, %6 ], [ 152, %8 ], [ 136, %10 ], [ 168, %12 ], [ 160, %15 ], [ 56, %19 ], [ 64, %20 ], [ 72, %23 ], [ %., %28 ], [ %.40, %.thread37 ]
  %32 = getelementptr inbounds nuw i8, ptr %0, i64 %.sink
  %.0 = load ptr, ptr %32, align 8, !tbaa !60
  ret ptr %.0
}